; ModuleID = 'source-C-CXX/8/1213.c'
source_filename = "source-C-CXX/8/1213.c"
target datalayout = "e-m:e-p270:32:32-p271:32:32-p272:64:64-i64:64-f80:128-n8:16:32:64-S128"
target triple = "x86_64-pc-linux-gnu"

%struct.patient = type { [11 x i8], i32 }

@.str = private unnamed_addr constant [3 x i8] c"%d\00", align 1
@.str.1 = private unnamed_addr constant [6 x i8] c"%s %d\00", align 1

; Function Attrs: nofree nounwind sspstrong uwtable
define dso_local i32 @main() local_unnamed_addr #0 {
  %1 = alloca [100 x %struct.patient], align 16
  %2 = alloca [100 x %struct.patient], align 16
  %3 = alloca [100 x %struct.patient], align 16
  %4 = alloca %struct.patient, align 4
  %5 = alloca i32, align 4
  %6 = getelementptr inbounds [100 x %struct.patient], [100 x %struct.patient]* %1, i64 0, i64 0, i32 0, i64 0
  call void @llvm.lifetime.start.p0i8(i64 1600, i8* nonnull %6) #5
  %7 = getelementptr inbounds [100 x %struct.patient], [100 x %struct.patient]* %2, i64 0, i64 0, i32 0, i64 0
  call void @llvm.lifetime.start.p0i8(i64 1600, i8* nonnull %7) #5
  %8 = getelementptr inbounds [100 x %struct.patient], [100 x %struct.patient]* %3, i64 0, i64 0, i32 0, i64 0
  call void @llvm.lifetime.start.p0i8(i64 1600, i8* nonnull %8) #5
  %9 = getelementptr inbounds %struct.patient, %struct.patient* %4, i64 0, i32 0, i64 0
  call void @llvm.lifetime.start.p0i8(i64 16, i8* nonnull %9)
  %10 = bitcast i32* %5 to i8*
  call void @llvm.lifetime.start.p0i8(i64 4, i8* nonnull %10) #5
  %11 = call i32 (i8*, ...) @__isoc99_scanf(i8* getelementptr inbounds ([3 x i8], [3 x i8]* @.str, i64 0, i64 0), i32* nonnull %5)
  %12 = load i32, i32* %5, align 4, !tbaa !5
  %13 = icmp sgt i32 %12, 0
  br i1 %13, label %18, label %95

14:                                               ; preds = %18
  %15 = icmp sgt i32 %24, 0
  br i1 %15, label %16, label %95

16:                                               ; preds = %14
  %17 = zext i32 %24 to i64
  br label %52

18:                                               ; preds = %0, %18
  %19 = phi i64 [ %23, %18 ], [ 0, %0 ]
  %20 = getelementptr inbounds [100 x %struct.patient], [100 x %struct.patient]* %1, i64 0, i64 %19, i32 0, i64 0
  %21 = getelementptr inbounds [100 x %struct.patient], [100 x %struct.patient]* %1, i64 0, i64 %19, i32 1
  %22 = call i32 (i8*, ...) @__isoc99_scanf(i8* getelementptr inbounds ([6 x i8], [6 x i8]* @.str.1, i64 0, i64 0), i8* nonnull %20, i32* nonnull %21)
  %23 = add nuw nsw i64 %19, 1
  %24 = load i32, i32* %5, align 4, !tbaa !5
  %25 = sext i32 %24 to i64
  %26 = icmp slt i64 %23, %25
  br i1 %26, label %18, label %14, !llvm.loop !9

27:                                               ; preds = %63
  %28 = icmp slt i32 %67, 0
  br i1 %28, label %78, label %29

29:                                               ; preds = %27
  %30 = icmp eq i32 %67, 0
  br i1 %30, label %74, label %31

31:                                               ; preds = %29
  %32 = zext i32 %67 to i64
  %33 = add i32 %67, 1
  br label %34

34:                                               ; preds = %31, %49
  %35 = phi i32 [ %50, %49 ], [ 1, %31 ]
  br label %36

36:                                               ; preds = %34, %47
  %37 = phi i64 [ 0, %34 ], [ %40, %47 ]
  %38 = getelementptr inbounds [100 x %struct.patient], [100 x %struct.patient]* %2, i64 0, i64 %37, i32 1
  %39 = load i32, i32* %38, align 4, !tbaa !11
  %40 = add nuw nsw i64 %37, 1
  %41 = getelementptr inbounds [100 x %struct.patient], [100 x %struct.patient]* %2, i64 0, i64 %40, i32 1
  %42 = load i32, i32* %41, align 4, !tbaa !11
  %43 = icmp slt i32 %39, %42
  br i1 %43, label %44, label %47

44:                                               ; preds = %36
  %45 = getelementptr inbounds [100 x %struct.patient], [100 x %struct.patient]* %2, i64 0, i64 %37, i32 0, i64 0
  call void @llvm.memcpy.p0i8.p0i8.i64(i8* noundef nonnull align 4 dereferenceable(16) %9, i8* noundef nonnull align 16 dereferenceable(16) %45, i64 16, i1 false), !tbaa.struct !13
  %46 = getelementptr inbounds [100 x %struct.patient], [100 x %struct.patient]* %2, i64 0, i64 %40, i32 0, i64 0
  call void @llvm.memcpy.p0i8.p0i8.i64(i8* noundef nonnull align 16 dereferenceable(16) %45, i8* noundef nonnull align 16 dereferenceable(16) %46, i64 16, i1 false), !tbaa.struct !13
  call void @llvm.memcpy.p0i8.p0i8.i64(i8* noundef nonnull align 16 dereferenceable(16) %46, i8* noundef nonnull align 4 dereferenceable(16) %9, i64 16, i1 false), !tbaa.struct !13
  br label %47

47:                                               ; preds = %44, %36
  %48 = icmp eq i64 %40, %32
  br i1 %48, label %49, label %36, !llvm.loop !15

49:                                               ; preds = %47
  %50 = add nuw i32 %35, 1
  %51 = icmp eq i32 %35, %33
  br i1 %51, label %73, label %34, !llvm.loop !16

52:                                               ; preds = %16, %63
  %53 = phi i64 [ 0, %16 ], [ %71, %63 ]
  %54 = phi i32 [ -1, %16 ], [ %67, %63 ]
  %55 = phi i32 [ -1, %16 ], [ %66, %63 ]
  %56 = getelementptr inbounds [100 x %struct.patient], [100 x %struct.patient]* %1, i64 0, i64 %53, i32 1
  %57 = load i32, i32* %56, align 4, !tbaa !11
  %58 = icmp sgt i32 %57, 59
  br i1 %58, label %59, label %61

59:                                               ; preds = %52
  %60 = add nsw i32 %54, 1
  br label %63

61:                                               ; preds = %52
  %62 = add nsw i32 %55, 1
  br label %63

63:                                               ; preds = %59, %61
  %64 = phi i32 [ %60, %59 ], [ %62, %61 ]
  %65 = phi [100 x %struct.patient]* [ %2, %59 ], [ %3, %61 ]
  %66 = phi i32 [ %55, %59 ], [ %62, %61 ]
  %67 = phi i32 [ %60, %59 ], [ %54, %61 ]
  %68 = sext i32 %64 to i64
  %69 = getelementptr inbounds [100 x %struct.patient], [100 x %struct.patient]* %65, i64 0, i64 %68, i32 0, i64 0
  %70 = getelementptr inbounds [100 x %struct.patient], [100 x %struct.patient]* %1, i64 0, i64 %53, i32 0, i64 0
  call void @llvm.memcpy.p0i8.p0i8.i64(i8* noundef nonnull align 16 dereferenceable(16) %69, i8* noundef nonnull align 16 dereferenceable(16) %70, i64 16, i1 false)
  %71 = add nuw nsw i64 %53, 1
  %72 = icmp eq i64 %71, %17
  br i1 %72, label %27, label %52, !llvm.loop !17

73:                                               ; preds = %49
  br i1 %28, label %78, label %74

74:                                               ; preds = %29, %73
  %75 = phi i32 [ %67, %73 ], [ 0, %29 ]
  %76 = add i32 %75, 1
  %77 = zext i32 %76 to i64
  br label %83

78:                                               ; preds = %83, %27, %73
  %79 = icmp slt i32 %66, 0
  br i1 %79, label %95, label %80

80:                                               ; preds = %78
  %81 = add nuw i32 %66, 1
  %82 = zext i32 %81 to i64
  br label %89

83:                                               ; preds = %74, %83
  %84 = phi i64 [ 0, %74 ], [ %87, %83 ]
  %85 = getelementptr inbounds [100 x %struct.patient], [100 x %struct.patient]* %2, i64 0, i64 %84, i32 0, i64 0
  %86 = call i32 @puts(i8* nonnull %85)
  %87 = add nuw nsw i64 %84, 1
  %88 = icmp eq i64 %87, %77
  br i1 %88, label %78, label %83, !llvm.loop !18

89:                                               ; preds = %80, %89
  %90 = phi i64 [ 0, %80 ], [ %93, %89 ]
  %91 = getelementptr inbounds [100 x %struct.patient], [100 x %struct.patient]* %3, i64 0, i64 %90, i32 0, i64 0
  %92 = call i32 @puts(i8* nonnull %91)
  %93 = add nuw nsw i64 %90, 1
  %94 = icmp eq i64 %93, %82
  br i1 %94, label %95, label %89, !llvm.loop !19

95:                                               ; preds = %89, %0, %14, %78
  call void @llvm.lifetime.end.p0i8(i64 4, i8* nonnull %10) #5
  call void @llvm.lifetime.end.p0i8(i64 16, i8* nonnull %9)
  call void @llvm.lifetime.end.p0i8(i64 1600, i8* nonnull %8) #5
  call void @llvm.lifetime.end.p0i8(i64 1600, i8* nonnull %7) #5
  call void @llvm.lifetime.end.p0i8(i64 1600, i8* nonnull %6) #5
  ret i32 0
}

; Function Attrs: argmemonly mustprogress nofree nosync nounwind willreturn
declare void @llvm.lifetime.start.p0i8(i64 immarg, i8* nocapture) #1

; Function Attrs: nofree nounwind
declare noundef i32 @__isoc99_scanf(i8* nocapture noundef readonly, ...) local_unnamed_addr #2

; Function Attrs: argmemonly mustprogress nofree nounwind willreturn
declare void @llvm.memcpy.p0i8.p0i8.i64(i8* noalias nocapture writeonly, i8* noalias nocapture readonly, i64, i1 immarg) #3

; Function Attrs: argmemonly mustprogress nofree nosync nounwind willreturn
declare void @llvm.lifetime.end.p0i8(i64 immarg, i8* nocapture) #1

; Function Attrs: nofree nounwind
declare noundef i32 @puts(i8* nocapture noundef readonly) local_unnamed_addr #4


!llvm.module.flags = !{!0, !1, !2, !3}
!llvm.ident = !{!4}

!0 = !{i32 1, !"wchar_size", i32 4}
!1 = !{i32 7, !"PIC Level", i32 2}
!2 = !{i32 7, !"PIE Level", i32 2}
!3 = !{i32 7, !"uwtable", i32 1}
!4 = !{!"clang version 13.0.0"}
!5 = !{!6, !6, i64 0}
!6 = !{!"int", !7, i64 0}
!7 = !{!"omnipotent char", !8, i64 0}
!8 = !{!"Simple C/C++ TBAA"}
!9 = distinct !{!9, !10}
!10 = !{!"llvm.loop.mustprogress"}
!11 = !{!12, !6, i64 12}
!12 = !{!"patient", !7, i64 0, !6, i64 12}
!13 = !{i64 0, i64 11, !14, i64 12, i64 4, !5}
!14 = !{!7, !7, i64 0}
!15 = distinct !{!15, !10}
!16 = distinct !{!16, !10}
!17 = distinct !{!17, !10}
!18 = distinct !{!18, !10}
!19 = distinct !{!19, !10}
